target datalayout = "e-m:e-p270:32:32-p271:32:32-p272:64:64-i64:64-i128:128-f80:128-n8:16:32:64-S128"
target triple = "x86_64-pc-linux-gnu"

%struct.Vec_Int_t_ = type { i32, i32, ptr }
%struct.Gia_Man_t_ = type { ptr, ptr, i32, i32, i32, i32, ptr, ptr, i32, i32, i32, ptr, ptr, %struct.Vec_Int_t_, %struct.Vec_Int_t_, i32, i32, i32, %struct.Vec_Int_t_, ptr, ptr, ptr, i32, i32, i32, i32, ptr, ptr, ptr, ptr, ptr, i32, i32, ptr, i32, ptr, ptr, ptr, ptr, ptr, ptr, ptr, ptr, ptr, ptr, ptr, ptr, ptr, ptr, ptr, ptr, ptr, ptr, %struct.Vec_Int_t_, %struct.Vec_Int_t_, ptr, ptr, ptr, ptr, ptr, ptr, ptr, ptr, ptr, ptr, ptr, ptr, ptr, ptr, ptr, ptr, ptr, ptr, ptr, ptr, ptr, i32, float, float, ptr, ptr, i32, ptr, ptr, ptr, ptr, ptr, ptr, ptr, ptr, ptr, ptr, ptr, ptr, ptr, ptr, ptr, i64, i64, ptr, ptr, i32, i32, i32, i32, i32, i32, i32, i32, i32, i32, i32, i32, ptr, ptr, ptr, ptr, ptr, ptr, ptr, ptr, i32, i32, i32, ptr, i32, i32, ptr, ptr, ptr, ptr, ptr, ptr, i32, i32, ptr, %struct.Vec_Int_t_, %struct.Vec_Int_t_, %struct.Vec_Int_t_, ptr, ptr, ptr, i32, i32, i32, i32, ptr, ptr, ptr, ptr, ptr }
%struct.Gia_Obj_t_ = type <{ i64, i32 }>
%struct.Gia_Rpr_t_ = type { i32 }

@.str.8 = private unnamed_addr constant [54 x i8] c"Found functional mismatch for LutId %d and AigId %d.\0A\00", align 1
@.str.9 = private unnamed_addr constant [49 x i8] c"Found phase mismatch for LutId %d and AigId %d.\0A\00", align 1

; Function Attrs: inlinehint nounwind uwtable
define internal i32 @Gia_ObjRepr(ptr noundef %0, i32 noundef %1) #2 {
  %3 = alloca ptr, align 8
  %4 = alloca i32, align 4
  store ptr %0, ptr %3, align 8, !tbaa !3
  store i32 %1, ptr %4, align 4, !tbaa !12
  %5 = load ptr, ptr %3, align 8, !tbaa !3
  %6 = getelementptr inbounds nuw %struct.Gia_Man_t_, ptr %5, i32 0, i32 27
  %7 = load ptr, ptr %6, align 8, !tbaa !148
  %8 = load i32, ptr %4, align 4, !tbaa !12
  %9 = sext i32 %8 to i64
  %10 = getelementptr inbounds %struct.Gia_Rpr_t_, ptr %7, i64 %9
  %11 = load i32, ptr %10, align 4
  %12 = and i32 %11, 268435455
  ret i32 %12
}

; Function Attrs: inlinehint nounwind uwtable
define internal i32 @Gia_ObjHasRepr(ptr noundef %0, i32 noundef %1) #2 {
  %3 = alloca ptr, align 8
  %4 = alloca i32, align 4
  store ptr %0, ptr %3, align 8, !tbaa !3
  store i32 %1, ptr %4, align 4, !tbaa !12
  %5 = load ptr, ptr %3, align 8, !tbaa !3
  %6 = getelementptr inbounds nuw %struct.Gia_Man_t_, ptr %5, i32 0, i32 27
  %7 = load ptr, ptr %6, align 8, !tbaa !148
  %8 = load i32, ptr %4, align 4, !tbaa !12
  %9 = sext i32 %8 to i64
  %10 = getelementptr inbounds %struct.Gia_Rpr_t_, ptr %7, i64 %9
  %11 = load i32, ptr %10, align 4
  %12 = and i32 %11, 268435455
  %13 = icmp ne i32 %12, 268435455
  %14 = zext i1 %13 to i32
  ret i32 %14
}

; Function Attrs: inlinehint nounwind uwtable
define internal i32 @Gia_ObjReprSelf(ptr noundef %0, i32 noundef %1) #2 {
  %3 = alloca ptr, align 8
  %4 = alloca i32, align 4
  store ptr %0, ptr %3, align 8, !tbaa !3
  store i32 %1, ptr %4, align 4, !tbaa !12
  %5 = load ptr, ptr %3, align 8, !tbaa !3
  %6 = load i32, ptr %4, align 4, !tbaa !12
  %7 = call i32 @Gia_ObjHasRepr(ptr noundef %5, i32 noundef %6)
  %8 = icmp ne i32 %7, 0
  br i1 %8, label %9, label %13

9:                                                ; preds = %2
  %10 = load ptr, ptr %3, align 8, !tbaa !3
  %11 = load i32, ptr %4, align 4, !tbaa !12
  %12 = call i32 @Gia_ObjRepr(ptr noundef %10, i32 noundef %11)
  br label %15

13:                                               ; preds = %2
  %14 = load i32, ptr %4, align 4, !tbaa !12
  br label %15

15:                                               ; preds = %13, %9
  %16 = phi i32 [ %12, %9 ], [ %14, %13 ]
  ret i32 %16
}

; Function Attrs: inlinehint nounwind uwtable
define internal i32 @Gia_ObjIsCo(ptr noundef %0) #2 {
  %2 = alloca ptr, align 8
  store ptr %0, ptr %2, align 8, !tbaa !45
  %3 = load ptr, ptr %2, align 8, !tbaa !45
  %4 = load i64, ptr %3, align 4
  %5 = lshr i64 %4, 31
  %6 = and i64 %5, 1
  %7 = trunc i64 %6 to i32
  %8 = icmp ne i32 %7, 0
  br i1 %8, label %9, label %15

9:                                                ; preds = %1
  %10 = load ptr, ptr %2, align 8, !tbaa !45
  %11 = load i64, ptr %10, align 4
  %12 = and i64 %11, 536870911
  %13 = trunc i64 %12 to i32
  %14 = icmp ne i32 %13, 536870911
  br label %15

15:                                               ; preds = %9, %1
  %16 = phi i1 [ false, %1 ], [ %14, %9 ]
  %17 = zext i1 %16 to i32
  ret i32 %17
}

; Function Attrs: inlinehint nounwind uwtable
define internal ptr @Gia_ManObj(ptr noundef %0, i32 noundef %1) #2 {
  %3 = alloca ptr, align 8
  %4 = alloca i32, align 4
  store ptr %0, ptr %3, align 8, !tbaa !3
  store i32 %1, ptr %4, align 4, !tbaa !12
  %5 = load ptr, ptr %3, align 8, !tbaa !3
  %6 = getelementptr inbounds nuw %struct.Gia_Man_t_, ptr %5, i32 0, i32 6
  %7 = load ptr, ptr %6, align 8, !tbaa !56
  %8 = load i32, ptr %4, align 4, !tbaa !12
  %9 = sext i32 %8 to i64
  %10 = getelementptr inbounds %struct.Gia_Obj_t_, ptr %7, i64 %9
  ret ptr %10
}

; Function Attrs: inlinehint nounwind uwtable
define internal i32 @Vec_IntEntry(ptr noundef %0, i32 noundef %1) #2 {
  %3 = alloca ptr, align 8
  %4 = alloca i32, align 4
  store ptr %0, ptr %3, align 8, !tbaa !8
  store i32 %1, ptr %4, align 4, !tbaa !12
  %5 = load ptr, ptr %3, align 8, !tbaa !8
  %6 = getelementptr inbounds nuw %struct.Vec_Int_t_, ptr %5, i32 0, i32 2
  %7 = load ptr, ptr %6, align 8, !tbaa !17
  %8 = load i32, ptr %4, align 4, !tbaa !12
  %9 = sext i32 %8 to i64
  %10 = getelementptr inbounds i32, ptr %7, i64 %9
  %11 = load i32, ptr %10, align 4, !tbaa !12
  ret i32 %11
}

; Function Attrs: inlinehint nounwind uwtable
define internal i32 @Abc_LitIsCompl(i32 noundef %0) #2 {
  %2 = alloca i32, align 4
  store i32 %0, ptr %2, align 4, !tbaa !12
  %3 = load i32, ptr %2, align 4, !tbaa !12
  %4 = and i32 %3, 1
  ret i32 %4
}

; Function Attrs: inlinehint nounwind uwtable
define internal i32 @Abc_Lit2Var(i32 noundef %0) #2 {
  %2 = alloca i32, align 4
  store i32 %0, ptr %2, align 4, !tbaa !12
  %3 = load i32, ptr %2, align 4, !tbaa !12
  %4 = ashr i32 %3, 1
  ret i32 %4
}

; Function Attrs: inlinehint nounwind uwtable
define internal i32 @Vec_IntSize(ptr noundef %0) #2 {
  %2 = alloca ptr, align 8
  store ptr %0, ptr %2, align 8, !tbaa !8
  %3 = load ptr, ptr %2, align 8, !tbaa !8
  %4 = getelementptr inbounds nuw %struct.Vec_Int_t_, ptr %3, i32 0, i32 1
  %5 = load i32, ptr %4, align 4, !tbaa !43
  ret i32 %5
}

; Function Attrs: nounwind uwtable
define void @Gia_ManNameMapVerify(ptr noundef %0, ptr noundef %1, ptr noundef %2, ptr noundef %3, ptr noundef %4, ptr noundef %5) #0 {
  %7 = alloca ptr, align 8
  %8 = alloca ptr, align 8
  %9 = alloca ptr, align 8
  %10 = alloca ptr, align 8
  %11 = alloca ptr, align 8
  %12 = alloca ptr, align 8
  %13 = alloca i32, align 4
  %14 = alloca i32, align 4
  %15 = alloca i32, align 4
  %16 = alloca i32, align 4
  %17 = alloca ptr, align 8
  %18 = alloca ptr, align 8
  %19 = alloca i32, align 4
  %20 = alloca i32, align 4
  %21 = alloca i32, align 4
  %22 = alloca i32, align 4
  %23 = alloca i32, align 4
  store ptr %0, ptr %7, align 8, !tbaa !3
  store ptr %1, ptr %8, align 8, !tbaa !3
  store ptr %2, ptr %9, align 8, !tbaa !3
  store ptr %3, ptr %10, align 8, !tbaa !8
  store ptr %4, ptr %11, align 8, !tbaa !8
  store ptr %5, ptr %12, align 8, !tbaa !83
  call void @llvm.lifetime.start.p0(i64 4, ptr %13) #13
  call void @llvm.lifetime.start.p0(i64 4, ptr %14) #13
  call void @llvm.lifetime.start.p0(i64 4, ptr %15) #13
  call void @llvm.lifetime.start.p0(i64 4, ptr %16) #13
  %24 = load ptr, ptr %11, align 8, !tbaa !8
  %25 = call i32 @Vec_IntSize(ptr noundef %24)
  store i32 %25, ptr %16, align 4, !tbaa !12
  call void @llvm.lifetime.start.p0(i64 8, ptr %17) #13
  call void @llvm.lifetime.start.p0(i64 8, ptr %18) #13
  %26 = load ptr, ptr %8, align 8, !tbaa !3
  call void @Gia_ManSetPhase(ptr noundef %26)
  %27 = load ptr, ptr %9, align 8, !tbaa !3
  call void @Gia_ManSetPhase(ptr noundef %27)
  store i32 0, ptr %13, align 4, !tbaa !12
  br label %28

28:                                               ; preds = %131, %6
  %29 = load i32, ptr %13, align 4, !tbaa !12
  %30 = load i32, ptr %16, align 4, !tbaa !12
  %31 = icmp slt i32 %29, %30
  br i1 %31, label %32, label %134

32:                                               ; preds = %28
  %33 = load ptr, ptr %12, align 8, !tbaa !83
  %34 = load i32, ptr %13, align 4, !tbaa !12
  %35 = sext i32 %34 to i64
  %36 = getelementptr inbounds i32, ptr %33, i64 %35
  %37 = load i32, ptr %36, align 4, !tbaa !12
  %38 = icmp sge i32 %37, 0
  br i1 %38, label %39, label %130

39:                                               ; preds = %32
  call void @llvm.lifetime.start.p0(i64 4, ptr %19) #13
  %40 = load ptr, ptr %12, align 8, !tbaa !83
  %41 = load i32, ptr %13, align 4, !tbaa !12
  %42 = sext i32 %41 to i64
  %43 = getelementptr inbounds i32, ptr %40, i64 %42
  %44 = load i32, ptr %43, align 4, !tbaa !12
  %45 = call i32 @Abc_Lit2Var(i32 noundef %44)
  store i32 %45, ptr %19, align 4, !tbaa !12
  call void @llvm.lifetime.start.p0(i64 4, ptr %20) #13
  %46 = load ptr, ptr %12, align 8, !tbaa !83
  %47 = load i32, ptr %13, align 4, !tbaa !12
  %48 = sext i32 %47 to i64
  %49 = getelementptr inbounds i32, ptr %46, i64 %48
  %50 = load i32, ptr %49, align 4, !tbaa !12
  %51 = call i32 @Abc_LitIsCompl(i32 noundef %50)
  store i32 %51, ptr %20, align 4, !tbaa !12
  call void @llvm.lifetime.start.p0(i64 4, ptr %21) #13
  %52 = load ptr, ptr %10, align 8, !tbaa !8
  %53 = load i32, ptr %19, align 4, !tbaa !12
  %54 = call i32 @Vec_IntEntry(ptr noundef %52, i32 noundef %53)
  store i32 %54, ptr %21, align 4, !tbaa !12
  call void @llvm.lifetime.start.p0(i64 4, ptr %22) #13
  %55 = load ptr, ptr %11, align 8, !tbaa !8
  %56 = load i32, ptr %13, align 4, !tbaa !12
  %57 = call i32 @Vec_IntEntry(ptr noundef %55, i32 noundef %56)
  store i32 %57, ptr %22, align 4, !tbaa !12
  %58 = load ptr, ptr %8, align 8, !tbaa !3
  %59 = load i32, ptr %21, align 4, !tbaa !12
  %60 = call i32 @Abc_Lit2Var(i32 noundef %59)
  %61 = call ptr @Gia_ManObj(ptr noundef %58, i32 noundef %60)
  store ptr %61, ptr %17, align 8, !tbaa !45
  %62 = load ptr, ptr %17, align 8, !tbaa !45
  %63 = call i32 @Gia_ObjIsCo(ptr noundef %62)
  %64 = icmp ne i32 %63, 0
  br i1 %64, label %65, label %66

65:                                               ; preds = %39
  store i32 4, ptr %23, align 4
  br label %127

66:                                               ; preds = %39
  %67 = load ptr, ptr %17, align 8, !tbaa !45
  %68 = getelementptr inbounds nuw %struct.Gia_Obj_t_, ptr %67, i32 0, i32 1
  %69 = load i32, ptr %68, align 4, !tbaa !50
  %70 = xor i32 %69, -1
  %71 = icmp eq i32 %70, 0
  br i1 %71, label %72, label %73

72:                                               ; preds = %66
  store i32 4, ptr %23, align 4
  br label %127

73:                                               ; preds = %66
  %74 = load ptr, ptr %9, align 8, !tbaa !3
  %75 = load i32, ptr %22, align 4, !tbaa !12
  %76 = call i32 @Abc_Lit2Var(i32 noundef %75)
  %77 = call ptr @Gia_ManObj(ptr noundef %74, i32 noundef %76)
  store ptr %77, ptr %18, align 8, !tbaa !45
  %78 = load ptr, ptr %18, align 8, !tbaa !45
  %79 = getelementptr inbounds nuw %struct.Gia_Obj_t_, ptr %78, i32 0, i32 1
  %80 = load i32, ptr %79, align 4, !tbaa !50
  %81 = xor i32 %80, -1
  %82 = icmp eq i32 %81, 0
  br i1 %82, label %83, label %84

83:                                               ; preds = %73
  store i32 4, ptr %23, align 4
  br label %127

84:                                               ; preds = %73
  %85 = load ptr, ptr %7, align 8, !tbaa !3
  %86 = load ptr, ptr %17, align 8, !tbaa !45
  %87 = getelementptr inbounds nuw %struct.Gia_Obj_t_, ptr %86, i32 0, i32 1
  %88 = load i32, ptr %87, align 4, !tbaa !50
  %89 = call i32 @Abc_Lit2Var(i32 noundef %88)
  %90 = call i32 @Gia_ObjReprSelf(ptr noundef %85, i32 noundef %89)
  store i32 %90, ptr %14, align 4, !tbaa !12
  %91 = load ptr, ptr %7, align 8, !tbaa !3
  %92 = load ptr, ptr %18, align 8, !tbaa !45
  %93 = getelementptr inbounds nuw %struct.Gia_Obj_t_, ptr %92, i32 0, i32 1
  %94 = load i32, ptr %93, align 4, !tbaa !50
  %95 = call i32 @Abc_Lit2Var(i32 noundef %94)
  %96 = call i32 @Gia_ObjReprSelf(ptr noundef %91, i32 noundef %95)
  store i32 %96, ptr %15, align 4, !tbaa !12
  %97 = load i32, ptr %14, align 4, !tbaa !12
  %98 = load i32, ptr %15, align 4, !tbaa !12
  %99 = icmp ne i32 %97, %98
  br i1 %99, label %100, label %104

100:                                              ; preds = %84
  %101 = load i32, ptr %13, align 4, !tbaa !12
  %102 = load i32, ptr %19, align 4, !tbaa !12
  %103 = call i32 (ptr, ...) @printf(ptr noundef @.str.8, i32 noundef %101, i32 noundef %102)
  br label %104

104:                                              ; preds = %100, %84
  %105 = load ptr, ptr %18, align 8, !tbaa !45
  %106 = load i64, ptr %105, align 4
  %107 = lshr i64 %106, 63
  %108 = trunc i64 %107 to i32
  %109 = load i32, ptr %22, align 4, !tbaa !12
  %110 = call i32 @Abc_LitIsCompl(i32 noundef %109)
  %111 = xor i32 %108, %110
  %112 = load ptr, ptr %17, align 8, !tbaa !45
  %113 = load i64, ptr %112, align 4
  %114 = lshr i64 %113, 63
  %115 = trunc i64 %114 to i32
  %116 = load i32, ptr %21, align 4, !tbaa !12
  %117 = call i32 @Abc_LitIsCompl(i32 noundef %116)
  %118 = xor i32 %115, %117
  %119 = load i32, ptr %20, align 4, !tbaa !12
  %120 = xor i32 %118, %119
  %121 = icmp ne i32 %111, %120
  br i1 %121, label %122, label %126

122:                                              ; preds = %104
  %123 = load i32, ptr %13, align 4, !tbaa !12
  %124 = load i32, ptr %19, align 4, !tbaa !12
  %125 = call i32 (ptr, ...) @printf(ptr noundef @.str.9, i32 noundef %123, i32 noundef %124)
  br label %126

126:                                              ; preds = %122, %104
  store i32 0, ptr %23, align 4
  br label %127

127:                                              ; preds = %126, %83, %72, %65
  call void @llvm.lifetime.end.p0(i64 4, ptr %22) #13
  call void @llvm.lifetime.end.p0(i64 4, ptr %21) #13
  call void @llvm.lifetime.end.p0(i64 4, ptr %20) #13
  call void @llvm.lifetime.end.p0(i64 4, ptr %19) #13
  %128 = load i32, ptr %23, align 4
  switch i32 %128, label %135 [
    i32 0, label %129
    i32 4, label %131
  ]

129:                                              ; preds = %127
  br label %130

130:                                              ; preds = %129, %32
  br label %131

131:                                              ; preds = %130, %127
  %132 = load i32, ptr %13, align 4, !tbaa !12
  %133 = add nsw i32 %132, 1
  store i32 %133, ptr %13, align 4, !tbaa !12
  br label %28, !llvm.loop !134

134:                                              ; preds = %28
  call void @llvm.lifetime.end.p0(i64 8, ptr %18) #13
  call void @llvm.lifetime.end.p0(i64 8, ptr %17) #13
  call void @llvm.lifetime.end.p0(i64 4, ptr %16) #13
  call void @llvm.lifetime.end.p0(i64 4, ptr %15) #13
  call void @llvm.lifetime.end.p0(i64 4, ptr %14) #13
  call void @llvm.lifetime.end.p0(i64 4, ptr %13) #13
  ret void

135:                                              ; preds = %127
  unreachable
}