; Function Attrs: nounwind uwtable
define void @Gia_ManNameMapVerify(ptr noundef readonly captures(none) %0, ptr noundef %1, ptr noundef %2, ptr noundef readonly captures(none) %3, ptr noundef readonly captures(none) %4, ptr noundef readonly captures(none) %5) local_unnamed_addr #2 {
  %7 = getelementptr i8, ptr %4, i64 4
  %.val41 = load i32, ptr %7, align 4, !tbaa !34
  tail call void @Gia_ManSetPhase(ptr noundef %1) #25
  tail call void @Gia_ManSetPhase(ptr noundef %2) #25
  %8 = icmp sgt i32 %.val41, 0
  br i1 %8, label %.lr.ph, label %._crit_edge

.lr.ph:                                           ; preds = %6
  %9 = getelementptr i8, ptr %3, i64 8
  %10 = getelementptr i8, ptr %4, i64 8
  %11 = getelementptr i8, ptr %1, i64 32
  %12 = getelementptr i8, ptr %2, i64 32
  %13 = getelementptr i8, ptr %0, i64 192
  %wide.trip.count = zext nneg i32 %.val41 to i64
  br label %14

14:                                               ; preds = %.lr.ph, %71
  %indvars.iv = phi i64 [ 0, %.lr.ph ], [ %indvars.iv.next, %71 ]
  %15 = getelementptr inbounds nuw i32, ptr %5, i64 %indvars.iv
  %16 = load i32, ptr %15, align 4, !tbaa !10
  %17 = icmp sgt i32 %16, -1
  br i1 %17, label %18, label %71

18:                                               ; preds = %14
  %19 = lshr i32 %16, 1
  %.val40 = load ptr, ptr %9, align 8, !tbaa !11
  %20 = zext nneg i32 %19 to i64
  %21 = getelementptr inbounds nuw i32, ptr %.val40, i64 %20
  %22 = load i32, ptr %21, align 4, !tbaa !10
  %.val = load ptr, ptr %10, align 8, !tbaa !11
  %23 = getelementptr inbounds nuw i32, ptr %.val, i64 %indvars.iv
  %24 = load i32, ptr %23, align 4, !tbaa !10
  %25 = ashr i32 %22, 1
  %.val43 = load ptr, ptr %11, align 8, !tbaa !41
  %26 = sext i32 %25 to i64
  %27 = getelementptr inbounds %struct.Gia_Obj_t_, ptr %.val43, i64 %26
  %.val46 = load i64, ptr %27, align 4
  %28 = and i64 %.val46, 2147483648
  %.not.i = icmp eq i64 %28, 0
  %29 = and i64 %.val46, 536870911
  %30 = icmp eq i64 %29, 536870911
  %narrow.i.not = or i1 %.not.i, %30
  br i1 %narrow.i.not, label %31, label %71

31:                                               ; preds = %18
  %32 = getelementptr inbounds nuw i8, ptr %27, i64 8
  %33 = load i32, ptr %32, align 4, !tbaa !45
  %34 = icmp eq i32 %33, -1
  br i1 %34, label %71, label %35

35:                                               ; preds = %31
  %36 = ashr i32 %24, 1
  %.val42 = load ptr, ptr %12, align 8, !tbaa !41
  %37 = sext i32 %36 to i64
  %38 = getelementptr inbounds %struct.Gia_Obj_t_, ptr %.val42, i64 %37
  %39 = getelementptr inbounds nuw i8, ptr %38, i64 8
  %40 = load i32, ptr %39, align 4, !tbaa !45
  %41 = icmp eq i32 %40, -1
  br i1 %41, label %71, label %42

42:                                               ; preds = %35
  %43 = ashr i32 %33, 1
  %.val45 = load ptr, ptr %13, align 8, !tbaa !112
  %44 = sext i32 %43 to i64
  %45 = getelementptr inbounds %struct.Gia_Rpr_t_, ptr %.val45, i64 %44
  %46 = load i32, ptr %45, align 4
  %47 = and i32 %46, 268435455
  %.not1.i = icmp eq i32 %47, 268435455
  %spec.select.i = select i1 %.not1.i, i32 %43, i32 %47
  %48 = ashr i32 %40, 1
  %49 = sext i32 %48 to i64
  %50 = getelementptr inbounds %struct.Gia_Rpr_t_, ptr %.val45, i64 %49
  %51 = load i32, ptr %50, align 4
  %52 = and i32 %51, 268435455
  %.not1.i47 = icmp eq i32 %52, 268435455
  %spec.select.i48 = select i1 %.not1.i47, i32 %48, i32 %52
  %.not38 = icmp eq i32 %spec.select.i, %spec.select.i48
  br i1 %.not38, label %56, label %53

53:                                               ; preds = %42
  %54 = trunc nuw nsw i64 %indvars.iv to i32
  %55 = tail call i32 (ptr, ...) @printf(ptr noundef nonnull dereferenceable(1) @.str.8, i32 noundef %54, i32 noundef %19)
  %.pre = load i64, ptr %27, align 4
  br label %56

56:                                               ; preds = %53, %42
  %57 = phi i64 [ %.pre, %53 ], [ %.val46, %42 ]
  %58 = load i64, ptr %38, align 4
  %59 = lshr i64 %58, 63
  %60 = trunc nuw nsw i64 %59 to i32
  %61 = and i32 %24, 1
  %62 = xor i32 %61, %60
  %63 = lshr i64 %57, 63
  %64 = trunc nuw nsw i64 %63 to i32
  %65 = xor i32 %22, %16
  %66 = and i32 %65, 1
  %67 = xor i32 %66, %64
  %.not39 = icmp eq i32 %62, %67
  br i1 %.not39, label %71, label %68

68:                                               ; preds = %56
  %69 = trunc nuw nsw i64 %indvars.iv to i32
  %70 = tail call i32 (ptr, ...) @printf(ptr noundef nonnull dereferenceable(1) @.str.9, i32 noundef %69, i32 noundef %19)
  br label %71

71:                                               ; preds = %18, %31, %35, %68, %56, %14
  %indvars.iv.next = add nuw nsw i64 %indvars.iv, 1
  %exitcond.not = icmp eq i64 %indvars.iv.next, %wide.trip.count
  br i1 %exitcond.not, label %._crit_edge, label %14, !llvm.loop !117

._crit_edge:                                      ; preds = %71, %6
  ret void
}